target datalayout = "e-m:e-p270:32:32-p271:32:32-p272:64:64-i64:64-i128:128-f80:128-n8:16:32:64-S128"
target triple = "x86_64-unknown-linux-gnu"

%"class.testing::AssertionResult" = type { i8, %"class.std::unique_ptr" }
%"class.std::unique_ptr" = type { %"struct.std::__uniq_ptr_data" }
%"struct.std::__uniq_ptr_data" = type { %"class.std::__uniq_ptr_impl" }
%"class.std::__uniq_ptr_impl" = type { %"class.std::tuple.36" }
%"class.std::tuple.36" = type { %"struct.std::_Tuple_impl.37" }
%"struct.std::_Tuple_impl.37" = type { %"struct.std::_Head_base.40" }
%"struct.std::_Head_base.40" = type { ptr }
%"struct.testing::(anonymous namespace)::NonNegative" = type { i32 }
%class.anon.418 = type { i8 }
%class.anon.449 = type { %class.anon.418 }

; Function Attrs: mustprogress nounwind uwtable
define linkonce_odr dso_local void @_ZNSt10_Head_baseILm1ESt14default_deleteINSt7__cxx1112basic_stringIcSt11char_traitsIcESaIcEEEELb1EEC2Ev(ptr noundef nonnull align 1 dereferenceable(1) %this) unnamed_addr #7 comdat align 2 {
entry:
  %this.addr = alloca ptr, align 8
  store ptr %this, ptr %this.addr, align 8
  ret void
}

; Function Attrs: mustprogress nounwind uwtable
define linkonce_odr dso_local void @_ZNSt10_Head_baseILm0EPNSt7__cxx1112basic_stringIcSt11char_traitsIcESaIcEEELb0EEC2Ev(ptr noundef nonnull align 8 dereferenceable(8) %this) unnamed_addr #7 comdat align 2 {
entry:
  %this.addr = alloca ptr, align 8
  store ptr %this, ptr %this.addr, align 8
  %this1 = load ptr, ptr %this.addr, align 8
  %_M_head_impl = getelementptr inbounds %"struct.std::_Head_base.40", ptr %this1, i32 0, i32 0
  store ptr null, ptr %_M_head_impl, align 8
  ret void
}

; Function Attrs: mustprogress uwtable
define linkonce_odr dso_local void @_ZNSt11_Tuple_implILm1EJSt14default_deleteINSt7__cxx1112basic_stringIcSt11char_traitsIcESaIcEEEEEEC2Ev(ptr noundef nonnull align 1 dereferenceable(1) %this) unnamed_addr #4 comdat align 2 {
entry:
  %this.addr = alloca ptr, align 8
  store ptr %this, ptr %this.addr, align 8
  %this1 = load ptr, ptr %this.addr, align 8
  call void @_ZNSt10_Head_baseILm1ESt14default_deleteINSt7__cxx1112basic_stringIcSt11char_traitsIcESaIcEEEELb1EEC2Ev(ptr noundef nonnull align 1 dereferenceable(1) %this1)
  ret void
}

; Function Attrs: noreturn nounwind uwtable
define linkonce_odr hidden void @__clang_call_terminate(ptr noundef %0) #11 comdat {
  %2 = call ptr @__cxa_begin_catch(ptr %0) #3
  call void @_ZSt9terminatev() #19
  unreachable
}

; Function Attrs: mustprogress uwtable
define linkonce_odr dso_local void @_ZNSt11_Tuple_implILm0EJPNSt7__cxx1112basic_stringIcSt11char_traitsIcESaIcEEESt14default_deleteIS5_EEEC2Ev(ptr noundef nonnull align 8 dereferenceable(8) %this) unnamed_addr #4 comdat align 2 {
entry:
  %this.addr = alloca ptr, align 8
  store ptr %this, ptr %this.addr, align 8
  %this1 = load ptr, ptr %this.addr, align 8
  call void @_ZNSt11_Tuple_implILm1EJSt14default_deleteINSt7__cxx1112basic_stringIcSt11char_traitsIcESaIcEEEEEEC2Ev(ptr noundef nonnull align 1 dereferenceable(1) %this1)
  call void @_ZNSt10_Head_baseILm0EPNSt7__cxx1112basic_stringIcSt11char_traitsIcESaIcEEELb0EEC2Ev(ptr noundef nonnull align 8 dereferenceable(8) %this1)
  ret void
}

; Function Attrs: mustprogress nounwind uwtable
define linkonce_odr dso_local void @_ZNSt5tupleIJPNSt7__cxx1112basic_stringIcSt11char_traitsIcESaIcEEESt14default_deleteIS5_EEEC2ILb1ETnNSt9enable_ifIXclsr17_TupleConstraintsIXT_ES6_S8_EE37__is_implicitly_default_constructibleEEbE4typeELb1EEEv(ptr noundef nonnull align 8 dereferenceable(8) %this) unnamed_addr #7 comdat align 2 personality ptr @__gxx_personality_v0 {
entry:
  %this.addr = alloca ptr, align 8
  store ptr %this, ptr %this.addr, align 8
  %this1 = load ptr, ptr %this.addr, align 8
  invoke void @_ZNSt11_Tuple_implILm0EJPNSt7__cxx1112basic_stringIcSt11char_traitsIcESaIcEEESt14default_deleteIS5_EEEC2Ev(ptr noundef nonnull align 8 dereferenceable(8) %this1)
          to label %invoke.cont unwind label %terminate.lpad

invoke.cont:                                      ; preds = %entry
  ret void

terminate.lpad:                                   ; preds = %entry
  %0 = landingpad { ptr, i32 }
          catch ptr null
  %1 = extractvalue { ptr, i32 } %0, 0
  call void @__clang_call_terminate(ptr %1) #19
  unreachable
}

; Function Attrs: mustprogress nounwind uwtable
define linkonce_odr dso_local void @_ZNSt15__uniq_ptr_implINSt7__cxx1112basic_stringIcSt11char_traitsIcESaIcEEESt14default_deleteIS5_EEC2Ev(ptr noundef nonnull align 8 dereferenceable(8) %this) unnamed_addr #7 comdat align 2 {
entry:
  %this.addr = alloca ptr, align 8
  store ptr %this, ptr %this.addr, align 8
  %this1 = load ptr, ptr %this.addr, align 8
  %_M_t = getelementptr inbounds %"class.std::__uniq_ptr_impl", ptr %this1, i32 0, i32 0
  call void @_ZNSt5tupleIJPNSt7__cxx1112basic_stringIcSt11char_traitsIcESaIcEEESt14default_deleteIS5_EEEC2ILb1ETnNSt9enable_ifIXclsr17_TupleConstraintsIXT_ES6_S8_EE37__is_implicitly_default_constructibleEEbE4typeELb1EEEv(ptr noundef nonnull align 8 dereferenceable(8) %_M_t) #3
  ret void
}

; Function Attrs: mustprogress nounwind uwtable
define linkonce_odr dso_local void @_ZNSt15__uniq_ptr_dataINSt7__cxx1112basic_stringIcSt11char_traitsIcESaIcEEESt14default_deleteIS5_ELb1ELb1EEC2Ev(ptr noundef nonnull align 8 dereferenceable(8) %this) unnamed_addr #7 comdat align 2 {
entry:
  %this.addr = alloca ptr, align 8
  store ptr %this, ptr %this.addr, align 8
  %this1 = load ptr, ptr %this.addr, align 8
  call void @_ZNSt15__uniq_ptr_implINSt7__cxx1112basic_stringIcSt11char_traitsIcESaIcEEESt14default_deleteIS5_EEC2Ev(ptr noundef nonnull align 8 dereferenceable(8) %this1) #3
  ret void
}

; Function Attrs: mustprogress nounwind uwtable
define linkonce_odr dso_local void @_ZNSt10unique_ptrINSt7__cxx1112basic_stringIcSt11char_traitsIcESaIcEEESt14default_deleteIS5_EEC2IS7_vEEv(ptr noundef nonnull align 8 dereferenceable(8) %this) unnamed_addr #7 comdat align 2 {
entry:
  %this.addr = alloca ptr, align 8
  store ptr %this, ptr %this.addr, align 8
  %this1 = load ptr, ptr %this.addr, align 8
  %_M_t = getelementptr inbounds %"class.std::unique_ptr", ptr %this1, i32 0, i32 0
  call void @llvm.memset.p0.i64(ptr align 8 %_M_t, i8 0, i64 8, i1 false)
  call void @_ZNSt15__uniq_ptr_dataINSt7__cxx1112basic_stringIcSt11char_traitsIcESaIcEEESt14default_deleteIS5_ELb1ELb1EEC2Ev(ptr noundef nonnull align 8 dereferenceable(8) %_M_t) #3
  ret void
}

; Function Attrs: mustprogress nounwind uwtable
define linkonce_odr dso_local void @_ZN7testing15AssertionResultC2IbEERKT_PNSt9enable_ifIXntsr3std14is_convertibleIS2_S0_EE5valueEvE4typeE(ptr noundef nonnull align 8 dereferenceable(16) %this, ptr noundef nonnull align 1 dereferenceable(1) %success, ptr noundef %0) unnamed_addr #7 comdat align 2 {
entry:
  %this.addr = alloca ptr, align 8
  %success.addr = alloca ptr, align 8
  %.addr = alloca ptr, align 8
  store ptr %this, ptr %this.addr, align 8
  store ptr %success, ptr %success.addr, align 8
  store ptr %0, ptr %.addr, align 8
  %this1 = load ptr, ptr %this.addr, align 8
  %success_ = getelementptr inbounds %"class.testing::AssertionResult", ptr %this1, i32 0, i32 0
  %1 = load ptr, ptr %success.addr, align 8
  %2 = load i8, ptr %1, align 1
  %tobool = trunc i8 %2 to i1
  %frombool = zext i1 %tobool to i8
  store i8 %frombool, ptr %success_, align 8
  %message_ = getelementptr inbounds %"class.testing::AssertionResult", ptr %this1, i32 0, i32 1
  call void @_ZNSt10unique_ptrINSt7__cxx1112basic_stringIcSt11char_traitsIcESaIcEEESt14default_deleteIS5_EEC2IS7_vEEv(ptr noundef nonnull align 8 dereferenceable(8) %message_) #3
  ret void
}

; Function Attrs: mustprogress uwtable
define internal void @"_ZZN7testing12_GLOBAL__N_140ExceptionCheckTest_ModifyingChecker_Test8TestBodyEvENK3$_1clEPNS0_21FollowsBasicGuaranteeE"(ptr noalias sret(%"class.testing::AssertionResult") align 8 %agg.result, ptr noundef nonnull align 1 dereferenceable(1) %this, ptr noundef %g) #4 align 2 {
entry:
  %result.ptr = alloca ptr, align 8
  %this.addr = alloca ptr, align 8
  %g.addr = alloca ptr, align 8
  %ref.tmp = alloca i8, align 1
  store ptr %agg.result, ptr %result.ptr, align 8
  store ptr %this, ptr %this.addr, align 8
  store ptr %g, ptr %g.addr, align 8
  %0 = load ptr, ptr %g.addr, align 8
  %i = getelementptr inbounds %"struct.testing::(anonymous namespace)::NonNegative", ptr %0, i32 0, i32 0
  %1 = load i32, ptr %i, align 4
  %cmp = icmp eq i32 %1, 1000
  %frombool = zext i1 %cmp to i8
  store i8 %frombool, ptr %ref.tmp, align 1
  call void @_ZN7testing15AssertionResultC2IbEERKT_PNSt9enable_ifIXntsr3std14is_convertibleIS2_S0_EE5valueEvE4typeE(ptr noundef nonnull align 8 dereferenceable(16) %agg.result, ptr noundef nonnull align 1 dereferenceable(1) %ref.tmp, ptr noundef null)
  ret void
}

; Function Attrs: mustprogress uwtable
define internal void @"_ZZN7testing19exceptions_internal19ExceptionSafetyTestINS_12_GLOBAL__N_121FollowsBasicGuaranteeEE12WrapContractIZNS2_40ExceptionCheckTest_ModifyingChecker_Test8TestBodyEvE3$_1EESt8functionIFNS_15AssertionResultEPS3_EERKT_ENKUlSA_E_clESA_"(ptr noalias sret(%"class.testing::AssertionResult") align 8 %agg.result, ptr noundef nonnull align 1 dereferenceable(1) %this, ptr noundef %t_ptr) #4 align 2 {
entry:
  %result.ptr = alloca ptr, align 8
  %this.addr = alloca ptr, align 8
  %t_ptr.addr = alloca ptr, align 8
  store ptr %agg.result, ptr %result.ptr, align 8
  store ptr %this, ptr %this.addr, align 8
  store ptr %t_ptr, ptr %t_ptr.addr, align 8
  %this1 = load ptr, ptr %this.addr, align 8
  %0 = getelementptr inbounds %class.anon.449, ptr %this1, i32 0, i32 0
  %1 = load ptr, ptr %t_ptr.addr, align 8
  call void @"_ZZN7testing12_GLOBAL__N_140ExceptionCheckTest_ModifyingChecker_Test8TestBodyEvENK3$_1clEPNS0_21FollowsBasicGuaranteeE"(ptr sret(%"class.testing::AssertionResult") align 8 %agg.result, ptr noundef nonnull align 1 dereferenceable(1) %0, ptr noundef %1)
  ret void
}

; Function Attrs: mustprogress nounwind uwtable
define linkonce_odr dso_local noundef ptr @_ZNKSt9_Any_data9_M_accessEv(ptr noundef nonnull align 8 dereferenceable(16) %this) #7 comdat align 2 {
entry:
  %this.addr = alloca ptr, align 8
  store ptr %this, ptr %this.addr, align 8
  %this1 = load ptr, ptr %this.addr, align 8
  %arrayidx = getelementptr inbounds [16 x i8], ptr %this1, i64 0, i64 0
  ret ptr %arrayidx
}

; Function Attrs: mustprogress uwtable
define internal void @"_ZSt13__invoke_implIN7testing15AssertionResultERZNS0_19exceptions_internal19ExceptionSafetyTestINS0_12_GLOBAL__N_121FollowsBasicGuaranteeEE12WrapContractIZNS4_40ExceptionCheckTest_ModifyingChecker_Test8TestBodyEvE3$_1EESt8functionIFS1_PS5_EERKT_EUlSB_E_JSB_EESE_St14__invoke_otherOT0_DpOT1_"(ptr noalias sret(%"class.testing::AssertionResult") align 8 %agg.result, ptr noundef nonnull align 1 dereferenceable(1) %__f, ptr noundef nonnull align 8 dereferenceable(8) %__args) #4 {
entry:
  %result.ptr = alloca ptr, align 8
  %__f.addr = alloca ptr, align 8
  %__args.addr = alloca ptr, align 8
  store ptr %agg.result, ptr %result.ptr, align 8
  store ptr %__f, ptr %__f.addr, align 8
  store ptr %__args, ptr %__args.addr, align 8
  %0 = load ptr, ptr %__f.addr, align 8
  %1 = load ptr, ptr %__args.addr, align 8
  %2 = load ptr, ptr %1, align 8
  call void @"_ZZN7testing19exceptions_internal19ExceptionSafetyTestINS_12_GLOBAL__N_121FollowsBasicGuaranteeEE12WrapContractIZNS2_40ExceptionCheckTest_ModifyingChecker_Test8TestBodyEvE3$_1EESt8functionIFNS_15AssertionResultEPS3_EERKT_ENKUlSA_E_clESA_"(ptr sret(%"class.testing::AssertionResult") align 8 %agg.result, ptr noundef nonnull align 1 dereferenceable(1) %0, ptr noundef %2)
  ret void
}

; Function Attrs: mustprogress nounwind uwtable
define internal noundef nonnull align 1 dereferenceable(1) ptr @"_ZNKSt9_Any_data9_M_accessIZN7testing19exceptions_internal19ExceptionSafetyTestINS1_12_GLOBAL__N_121FollowsBasicGuaranteeEE12WrapContractIZNS4_40ExceptionCheckTest_ModifyingChecker_Test8TestBodyEvE3$_1EESt8functionIFNS1_15AssertionResultEPS5_EERKT_EUlSC_E_EESH_v"(ptr noundef nonnull align 8 dereferenceable(16) %this) #7 align 2 {
entry:
  %this.addr = alloca ptr, align 8
  store ptr %this, ptr %this.addr, align 8
  %this1 = load ptr, ptr %this.addr, align 8
  %call = call noundef ptr @_ZNKSt9_Any_data9_M_accessEv(ptr noundef nonnull align 8 dereferenceable(16) %this1) #3
  ret ptr %call
}

; Function Attrs: mustprogress uwtable
define internal void @"_ZSt10__invoke_rIN7testing15AssertionResultERZNS0_19exceptions_internal19ExceptionSafetyTestINS0_12_GLOBAL__N_121FollowsBasicGuaranteeEE12WrapContractIZNS4_40ExceptionCheckTest_ModifyingChecker_Test8TestBodyEvE3$_1EESt8functionIFS1_PS5_EERKT_EUlSB_E_JSB_EENSt9enable_ifIX16is_invocable_r_vISE_T0_DpT1_EESE_E4typeEOSK_DpOSL_"(ptr noalias sret(%"class.testing::AssertionResult") align 8 %agg.result, ptr noundef nonnull align 1 dereferenceable(1) %__fn, ptr noundef nonnull align 8 dereferenceable(8) %__args) #4 {
entry:
  %result.ptr = alloca ptr, align 8
  %__fn.addr = alloca ptr, align 8
  %__args.addr = alloca ptr, align 8
  store ptr %agg.result, ptr %result.ptr, align 8
  store ptr %__fn, ptr %__fn.addr, align 8
  store ptr %__args, ptr %__args.addr, align 8
  %0 = load ptr, ptr %__fn.addr, align 8
  %1 = load ptr, ptr %__args.addr, align 8
  call void @"_ZSt13__invoke_implIN7testing15AssertionResultERZNS0_19exceptions_internal19ExceptionSafetyTestINS0_12_GLOBAL__N_121FollowsBasicGuaranteeEE12WrapContractIZNS4_40ExceptionCheckTest_ModifyingChecker_Test8TestBodyEvE3$_1EESt8functionIFS1_PS5_EERKT_EUlSB_E_JSB_EESE_St14__invoke_otherOT0_DpOT1_"(ptr sret(%"class.testing::AssertionResult") align 8 %agg.result, ptr noundef nonnull align 1 dereferenceable(1) %0, ptr noundef nonnull align 8 dereferenceable(8) %1)
  ret void
}

; Function Attrs: mustprogress nounwind uwtable
define internal noundef ptr @"_ZNSt14_Function_base13_Base_managerIZN7testing19exceptions_internal19ExceptionSafetyTestINS1_12_GLOBAL__N_121FollowsBasicGuaranteeEE12WrapContractIZNS4_40ExceptionCheckTest_ModifyingChecker_Test8TestBodyEvE3$_1EESt8functionIFNS1_15AssertionResultEPS5_EERKT_EUlSC_E_E14_M_get_pointerERKSt9_Any_data"(ptr noundef nonnull align 8 dereferenceable(16) %__source) #7 align 2 {
entry:
  %__source.addr = alloca ptr, align 8
  %__f = alloca ptr, align 8
  store ptr %__source, ptr %__source.addr, align 8
  %0 = load ptr, ptr %__source.addr, align 8
  %call = call noundef nonnull align 1 dereferenceable(1) ptr @"_ZNKSt9_Any_data9_M_accessIZN7testing19exceptions_internal19ExceptionSafetyTestINS1_12_GLOBAL__N_121FollowsBasicGuaranteeEE12WrapContractIZNS4_40ExceptionCheckTest_ModifyingChecker_Test8TestBodyEvE3$_1EESt8functionIFNS1_15AssertionResultEPS5_EERKT_EUlSC_E_EESH_v"(ptr noundef nonnull align 8 dereferenceable(16) %0) #3
  store ptr %call, ptr %__f, align 8
  %1 = load ptr, ptr %__f, align 8
  ret ptr %1
}

; Function Attrs: mustprogress uwtable
define internal void @"_ZNSt17_Function_handlerIFN7testing15AssertionResultEPNS0_12_GLOBAL__N_121FollowsBasicGuaranteeEEZNS0_19exceptions_internal19ExceptionSafetyTestIS3_E12WrapContractIZNS2_40ExceptionCheckTest_ModifyingChecker_Test8TestBodyEvE3$_1EESt8functionIS5_ERKT_EUlS4_E_E9_M_invokeERKSt9_Any_dataOS4_"(ptr noalias sret(%"class.testing::AssertionResult") align 8 %agg.result, ptr noundef nonnull align 8 dereferenceable(16) %__functor, ptr noundef nonnull align 8 dereferenceable(8) %__args) #4 align 2 {
entry:
  %result.ptr = alloca ptr, align 8
  %__functor.addr = alloca ptr, align 8
  %__args.addr = alloca ptr, align 8
  store ptr %agg.result, ptr %result.ptr, align 8
  store ptr %__functor, ptr %__functor.addr, align 8
  store ptr %__args, ptr %__args.addr, align 8
  %0 = load ptr, ptr %__functor.addr, align 8
  %call = call noundef ptr @"_ZNSt14_Function_base13_Base_managerIZN7testing19exceptions_internal19ExceptionSafetyTestINS1_12_GLOBAL__N_121FollowsBasicGuaranteeEE12WrapContractIZNS4_40ExceptionCheckTest_ModifyingChecker_Test8TestBodyEvE3$_1EESt8functionIFNS1_15AssertionResultEPS5_EERKT_EUlSC_E_E14_M_get_pointerERKSt9_Any_data"(ptr noundef nonnull align 8 dereferenceable(16) %0) #3
  %1 = load ptr, ptr %__args.addr, align 8
  call void @"_ZSt10__invoke_rIN7testing15AssertionResultERZNS0_19exceptions_internal19ExceptionSafetyTestINS0_12_GLOBAL__N_121FollowsBasicGuaranteeEE12WrapContractIZNS4_40ExceptionCheckTest_ModifyingChecker_Test8TestBodyEvE3$_1EESt8functionIFS1_PS5_EERKT_EUlSB_E_JSB_EENSt9enable_ifIX16is_invocable_r_vISE_T0_DpT1_EESE_E4typeEOSK_DpOSL_"(ptr sret(%"class.testing::AssertionResult") align 8 %agg.result, ptr noundef nonnull align 1 dereferenceable(1) %call, ptr noundef nonnull align 8 dereferenceable(8) %1)
  ret void
}