; Function Attrs: mustprogress nofree norecurse nosync nounwind willreturn memory(read, argmem: readwrite, inaccessiblemem: none) uwtable
define internal void @"_ZNSt17_Function_handlerIFN7testing15AssertionResultEPNS0_12_GLOBAL__N_121FollowsBasicGuaranteeEEZNS0_19exceptions_internal19ExceptionSafetyTestIS3_E12WrapContractIZNS2_40ExceptionCheckTest_ModifyingChecker_Test8TestBodyEvE3$_1EESt8functionIS5_ERKT_EUlS4_E_E9_M_invokeERKSt9_Any_dataOS4_"(ptr noalias nocapture writeonly sret(%"class.testing::AssertionResult") align 8 %agg.result, ptr nocapture nonnull readnone align 8 %__functor, ptr nocapture noundef nonnull readonly align 8 dereferenceable(8) %__args) #17 align 2 personality ptr @__gxx_personality_v0 {
entry:
  %__args.val = load ptr, ptr %__args, align 8
  %__args.val.val = load i32, ptr %__args.val, align 4
  %cmp.i.i.i.i = icmp eq i32 %__args.val.val, 1000
  %frombool.i.i.i.i = zext i1 %cmp.i.i.i.i to i8
  store i8 %frombool.i.i.i.i, ptr %agg.result, align 8, !alias.scope !583
  %message_.i.i.i.i.i = getelementptr inbounds i8, ptr %agg.result, i64 8
  store ptr null, ptr %message_.i.i.i.i.i, align 8, !alias.scope !583
  ret void
}